; Function Attrs: nounwind uwtable
define void @lv_timer_reset(ptr noundef writeonly %0) local_unnamed_addr #0 {
  %.not = icmp eq ptr %0, null
  br i1 %.not, label %.preheader, label %2

.preheader:                                       ; preds = %1, %.preheader
  br label %.preheader

2:                                                ; preds = %1
  %3 = tail call i32 @lv_tick_get() #8
  %4 = getelementptr inbounds nuw i8, ptr %0, i64 4
  store i32 %3, ptr %4, align 4, !tbaa !29
  store i32 0, ptr getelementptr inbounds nuw (i8, ptr @lv_global, i64 244), align 4, !tbaa !19
  %5 = load ptr, ptr getelementptr inbounds nuw (i8, ptr @lv_global, i64 272), align 8, !tbaa !20
  %.not.i = icmp eq ptr %5, null
  br i1 %.not.i, label %lv_timer_handler_resume.exit, label %6

6:                                                ; preds = %2
  %7 = load ptr, ptr getelementptr inbounds nuw (i8, ptr @lv_global, i64 280), align 8, !tbaa !21
  tail call void %5(ptr noundef %7) #8
  br label %lv_timer_handler_resume.exit

lv_timer_handler_resume.exit:                     ; preds = %2, %6
  ret void
}